; Function Attrs: mustprogress uwtable
define void @_Z22gmx_calc_comg_f_blockaPK10gmx_mtop_tPA3_fPK8t_blockabS3_(ptr noundef %0, ptr noundef readonly captures(none) %1, ptr noundef readonly captures(none) %2, i1 noundef zeroext %3, ptr noundef writeonly captures(none) %4) local_unnamed_addr #2 {
  %6 = getelementptr inbounds nuw i8, ptr %2, i64 24
  %7 = load ptr, ptr %6, align 8, !tbaa !81
  br i1 %3, label %8, label %34

8:                                                ; preds = %5
  %9 = load i32, ptr %2, align 8, !tbaa !68
  %10 = icmp sgt i32 %9, 0
  br i1 %10, label %.lr.ph27.i.i, label %_Z21gmx_calc_comg_f_blockPK10gmx_mtop_tPA3_fPK7t_blockPKibS3_.exit

.lr.ph27.i.i:                                     ; preds = %8
  %11 = getelementptr inbounds nuw i8, ptr %2, i64 8
  %12 = load ptr, ptr %11, align 8, !tbaa !70
  %wide.trip.count35.i.i = zext nneg i32 %9 to i64
  %.pre.i.i = load i32, ptr %12, align 4, !tbaa !8
  br label %13

13:                                               ; preds = %._crit_edge.i.i, %.lr.ph27.i.i
  %14 = phi i32 [ %.pre.i.i, %.lr.ph27.i.i ], [ %16, %._crit_edge.i.i ]
  %indvars.iv32.i.i = phi i64 [ 0, %.lr.ph27.i.i ], [ %indvars.iv.next33.i.i, %._crit_edge.i.i ]
  %indvars.iv.next33.i.i = add nuw nsw i64 %indvars.iv32.i.i, 1
  %15 = getelementptr inbounds nuw i32, ptr %12, i64 %indvars.iv.next33.i.i
  %16 = load i32, ptr %15, align 4, !tbaa !8
  %17 = icmp slt i32 %14, %16
  br i1 %17, label %.lr.ph.preheader.i.i, label %._crit_edge.i.i

.lr.ph.preheader.i.i:                             ; preds = %13
  %18 = sext i32 %14 to i64
  %wide.trip.count.i.i = sext i32 %16 to i64
  br label %.lr.ph.i.i

._crit_edge.i.i:                                  ; preds = %.lr.ph.i.i, %13
  %.sroa.10.0.lcssa.i.i = phi float [ 0.000000e+00, %13 ], [ %33, %.lr.ph.i.i ]
  %.sroa.6.0.lcssa.i.i = phi float [ 0.000000e+00, %13 ], [ %30, %.lr.ph.i.i ]
  %.sroa.0.0.lcssa.i.i = phi float [ 0.000000e+00, %13 ], [ %27, %.lr.ph.i.i ]
  %19 = getelementptr inbounds nuw [3 x float], ptr %4, i64 %indvars.iv32.i.i
  store float %.sroa.0.0.lcssa.i.i, ptr %19, align 4, !tbaa !4
  %20 = getelementptr inbounds nuw i8, ptr %19, i64 4
  store float %.sroa.6.0.lcssa.i.i, ptr %20, align 4, !tbaa !4
  %21 = getelementptr inbounds nuw i8, ptr %19, i64 8
  store float %.sroa.10.0.lcssa.i.i, ptr %21, align 4, !tbaa !4
  %exitcond36.not.i.i = icmp eq i64 %indvars.iv.next33.i.i, %wide.trip.count35.i.i
  br i1 %exitcond36.not.i.i, label %_Z21gmx_calc_comg_f_blockPK10gmx_mtop_tPA3_fPK7t_blockPKibS3_.exit, label %13, !llvm.loop !79

.lr.ph.i.i:                                       ; preds = %.lr.ph.i.i, %.lr.ph.preheader.i.i
  %indvars.iv.i.i = phi i64 [ %18, %.lr.ph.preheader.i.i ], [ %indvars.iv.next.i.i, %.lr.ph.i.i ]
  %.sroa.0.020.i.i = phi float [ 0.000000e+00, %.lr.ph.preheader.i.i ], [ %27, %.lr.ph.i.i ]
  %.sroa.6.019.i.i = phi float [ 0.000000e+00, %.lr.ph.preheader.i.i ], [ %30, %.lr.ph.i.i ]
  %.sroa.10.018.i.i = phi float [ 0.000000e+00, %.lr.ph.preheader.i.i ], [ %33, %.lr.ph.i.i ]
  %22 = getelementptr inbounds i32, ptr %7, i64 %indvars.iv.i.i
  %23 = load i32, ptr %22, align 4, !tbaa !8
  %24 = sext i32 %23 to i64
  %25 = getelementptr inbounds [3 x float], ptr %1, i64 %24
  %26 = load float, ptr %25, align 4, !tbaa !4
  %27 = fadd float %.sroa.0.020.i.i, %26
  %28 = getelementptr inbounds nuw i8, ptr %25, i64 4
  %29 = load float, ptr %28, align 4, !tbaa !4
  %30 = fadd float %.sroa.6.019.i.i, %29
  %31 = getelementptr inbounds nuw i8, ptr %25, i64 8
  %32 = load float, ptr %31, align 4, !tbaa !4
  %33 = fadd float %.sroa.10.018.i.i, %32
  %indvars.iv.next.i.i = add nsw i64 %indvars.iv.i.i, 1
  %exitcond.not.i.i = icmp eq i64 %indvars.iv.next.i.i, %wide.trip.count.i.i
  br i1 %exitcond.not.i.i, label %._crit_edge.i.i, label %.lr.ph.i.i, !llvm.loop !80

34:                                               ; preds = %5
  tail call void @_Z20gmx_calc_cog_f_blockPK10gmx_mtop_tPA3_fPK7t_blockPKiS3_(ptr noundef %0, ptr noundef readonly %1, ptr noundef nonnull readonly %2, ptr noundef readonly %7, ptr noundef %4)
  br label %_Z21gmx_calc_comg_f_blockPK10gmx_mtop_tPA3_fPK7t_blockPKibS3_.exit

_Z21gmx_calc_comg_f_blockPK10gmx_mtop_tPA3_fPK7t_blockPKibS3_.exit: ; preds = %._crit_edge.i.i, %8, %34
  ret void
}